target datalayout = "e-m:e-p270:32:32-p271:32:32-p272:64:64-i64:64-i128:128-f80:128-n8:16:32:64-S128"
target triple = "x86_64-pc-linux-gnu"

%"class.llvm::MemoryBufferRef" = type { %"class.llvm::StringRef", %"class.llvm::StringRef" }
%"class.llvm::StringRef" = type { ptr, i64 }
%"class.llvm::object::DXContainer" = type { %"class.llvm::MemoryBufferRef", %"struct.llvm::dxbc::Header", %"class.llvm::SmallVector", %"class.std::optional", %"class.std::optional.0", %"class.std::optional.8", %"class.std::optional.16", %"class.llvm::object::DirectX::Signature", %"class.llvm::object::DirectX::Signature", %"class.llvm::object::DirectX::Signature" }
%"struct.llvm::dxbc::Header" = type { [4 x i8], %"struct.llvm::dxbc::Hash", %"struct.llvm::dxbc::ContainerVersion", i32, i32 }
%"struct.llvm::dxbc::Hash" = type { [16 x i8] }
%"struct.llvm::dxbc::ContainerVersion" = type { i16, i16 }
%"class.llvm::SmallVector" = type { %"class.llvm::SmallVectorImpl", %"struct.llvm::SmallVectorStorage" }
%"class.llvm::SmallVectorImpl" = type { %"class.llvm::SmallVectorTemplateBase" }
%"class.llvm::SmallVectorTemplateBase" = type { %"class.llvm::SmallVectorTemplateCommon" }
%"class.llvm::SmallVectorTemplateCommon" = type { %"class.llvm::SmallVectorBase" }
%"class.llvm::SmallVectorBase" = type { ptr, i32, i32 }
%"struct.llvm::SmallVectorStorage" = type { [16 x i8] }
%"class.std::optional" = type { %"struct.std::_Optional_base" }
%"struct.std::_Optional_base" = type { %"struct.std::_Optional_payload" }
%"struct.std::_Optional_payload" = type { %"struct.std::_Optional_payload_base.base", [7 x i8] }
%"struct.std::_Optional_payload_base.base" = type <{ %"union.std::_Optional_payload_base<std::pair<llvm::dxbc::ProgramHeader, const char *>>::_Storage", i8 }>
%"union.std::_Optional_payload_base<std::pair<llvm::dxbc::ProgramHeader, const char *>>::_Storage" = type { %"struct.std::pair" }
%"struct.std::pair" = type { %"struct.llvm::dxbc::ProgramHeader", ptr }
%"struct.llvm::dxbc::ProgramHeader" = type { i8, i8, i16, i32, %"struct.llvm::dxbc::BitcodeHeader" }
%"struct.llvm::dxbc::BitcodeHeader" = type { [4 x i8], i8, i8, i16, i32, i32 }
%"class.std::optional.0" = type { %"struct.std::_Optional_base.1" }
%"struct.std::_Optional_base.1" = type { %"struct.std::_Optional_payload.3" }
%"struct.std::_Optional_payload.3" = type { %"struct.std::_Optional_payload_base.base.5", [7 x i8] }
%"struct.std::_Optional_payload_base.base.5" = type <{ %"union.std::_Optional_payload_base<unsigned long>::_Storage", i8 }>
%"union.std::_Optional_payload_base<unsigned long>::_Storage" = type { i64 }
%"class.std::optional.8" = type { %"struct.std::_Optional_base.9" }
%"struct.std::_Optional_base.9" = type { %"struct.std::_Optional_payload.11" }
%"struct.std::_Optional_payload.11" = type { %"struct.std::_Optional_payload_base.base.13", [3 x i8] }
%"struct.std::_Optional_payload_base.base.13" = type <{ %"union.std::_Optional_payload_base<llvm::dxbc::ShaderHash>::_Storage", i8 }>
%"union.std::_Optional_payload_base<llvm::dxbc::ShaderHash>::_Storage" = type { %"struct.llvm::dxbc::ShaderHash" }
%"struct.llvm::dxbc::ShaderHash" = type { i32, [16 x i8] }
%"class.std::optional.16" = type { %"struct.std::_Optional_base.17" }
%"struct.std::_Optional_base.17" = type { %"struct.std::_Optional_payload.19" }
%"struct.std::_Optional_payload.19" = type { %"struct.std::_Optional_payload.base.39", [7 x i8] }
%"struct.std::_Optional_payload.base.39" = type { %"struct.std::_Optional_payload_base.base.38" }
%"struct.std::_Optional_payload_base.base.38" = type <{ %"union.std::_Optional_payload_base<llvm::object::DirectX::PSVRuntimeInfo>::_Storage", i8 }>
%"union.std::_Optional_payload_base<llvm::object::DirectX::PSVRuntimeInfo>::_Storage" = type { %"class.llvm::object::DirectX::PSVRuntimeInfo" }
%"class.llvm::object::DirectX::PSVRuntimeInfo" = type { %"class.llvm::StringRef", i32, %"class.std::variant", [4 x i8], %"struct.llvm::object::ViewArray", %"class.llvm::StringRef", %"class.llvm::SmallVector.32", %"struct.llvm::object::ViewArray.34", %"struct.llvm::object::ViewArray.34", %"struct.llvm::object::ViewArray.34", %"struct.std::array", %"struct.llvm::object::ViewArray.36", %"struct.std::array", %"struct.llvm::object::ViewArray.36", %"struct.llvm::object::ViewArray.36" }
%"class.std::variant" = type { %"struct.std::__detail::__variant::_Variant_base.base", [3 x i8] }
%"struct.std::__detail::__variant::_Variant_base.base" = type { %"struct.std::__detail::__variant::_Move_assign_base.base" }
%"struct.std::__detail::__variant::_Move_assign_base.base" = type { %"struct.std::__detail::__variant::_Copy_assign_base.base" }
%"struct.std::__detail::__variant::_Copy_assign_base.base" = type { %"struct.std::__detail::__variant::_Move_ctor_base.base" }
%"struct.std::__detail::__variant::_Move_ctor_base.base" = type { %"struct.std::__detail::__variant::_Copy_ctor_base.base" }
%"struct.std::__detail::__variant::_Copy_ctor_base.base" = type { %"struct.std::__detail::__variant::_Variant_storage.base" }
%"struct.std::__detail::__variant::_Variant_storage.base" = type <{ %"union.std::__detail::__variant::_Variadic_union", i8 }>
%"union.std::__detail::__variant::_Variadic_union" = type { %"union.std::__detail::__variant::_Variadic_union.22" }
%"union.std::__detail::__variant::_Variadic_union.22" = type { %"union.std::__detail::__variant::_Variadic_union.24" }
%"union.std::__detail::__variant::_Variadic_union.24" = type { %"union.std::__detail::__variant::_Variadic_union.26" }
%"union.std::__detail::__variant::_Variadic_union.26" = type { %"union.std::__detail::__variant::_Variadic_union.28" }
%"union.std::__detail::__variant::_Variadic_union.28" = type { %"struct.std::__detail::__variant::_Uninitialized.29" }
%"struct.std::__detail::__variant::_Uninitialized.29" = type { %"struct.llvm::dxbc::PSV::v3::RuntimeInfo" }
%"struct.llvm::dxbc::PSV::v3::RuntimeInfo" = type { %"struct.llvm::dxbc::PSV::v2::RuntimeInfo", i32 }
%"struct.llvm::dxbc::PSV::v2::RuntimeInfo" = type { %"struct.llvm::dxbc::PSV::v1::RuntimeInfo", i32, i32, i32 }
%"struct.llvm::dxbc::PSV::v1::RuntimeInfo" = type { %"struct.llvm::dxbc::PSV::v0::RuntimeInfo", i8, i8, %"union.llvm::dxbc::PSV::v1::GeometryExtraInfo", i8, i8, i8, i8, [4 x i8] }
%"struct.llvm::dxbc::PSV::v0::RuntimeInfo" = type { %"union.llvm::dxbc::PipelinePSVInfo", i32, i32 }
%"union.llvm::dxbc::PipelinePSVInfo" = type { %"struct.llvm::dxbc::HullPSVInfo" }
%"struct.llvm::dxbc::HullPSVInfo" = type { i32, i32, i32, i32 }
%"union.llvm::dxbc::PSV::v1::GeometryExtraInfo" = type { i16 }
%"struct.llvm::object::ViewArray" = type <{ %"class.llvm::StringRef", i32, [4 x i8] }>
%"class.llvm::SmallVector.32" = type { %"class.llvm::SmallVectorImpl", %"struct.llvm::SmallVectorStorage.33" }
%"struct.llvm::SmallVectorStorage.33" = type { [48 x i8] }
%"struct.llvm::object::ViewArray.34" = type <{ %"class.llvm::StringRef", i32, [4 x i8] }>
%"struct.std::array" = type { [4 x %"struct.llvm::object::ViewArray.36"] }
%"struct.llvm::object::ViewArray.36" = type <{ %"class.llvm::StringRef", i32, [4 x i8] }>
%"class.llvm::object::DirectX::Signature" = type { %"struct.llvm::object::ViewArray.42", i32, %"class.llvm::StringRef" }
%"struct.llvm::object::ViewArray.42" = type <{ %"class.llvm::StringRef", i32, [4 x i8] }>
%"struct.std::_Optional_payload_base" = type <{ %"union.std::_Optional_payload_base<std::pair<llvm::dxbc::ProgramHeader, const char *>>::_Storage", i8, [7 x i8] }>
%"struct.std::_Optional_payload_base.4" = type <{ %"union.std::_Optional_payload_base<unsigned long>::_Storage", i8, [7 x i8] }>
%"struct.std::_Optional_payload_base.12" = type <{ %"union.std::_Optional_payload_base<llvm::dxbc::ShaderHash>::_Storage", i8, [3 x i8] }>
%"struct.std::_Optional_payload_base.21" = type <{ %"union.std::_Optional_payload_base<llvm::object::DirectX::PSVRuntimeInfo>::_Storage", i8, [7 x i8] }>

; Function Attrs: mustprogress nounwind uwtable
define linkonce_odr hidden void @_ZNSt22_Optional_payload_baseIN4llvm6object7DirectX14PSVRuntimeInfoEE8_StorageIS3_Lb0EEC2Ev(ptr noundef nonnull align 8 dereferenceable(520) %0) unnamed_addr #0 comdat align 2 {
  %2 = alloca ptr, align 8
  store ptr %0, ptr %2, align 8
  ret void
}

; Function Attrs: mustprogress nounwind uwtable
define linkonce_odr hidden void @_ZNSt22_Optional_payload_baseIN4llvm6object7DirectX14PSVRuntimeInfoEEC2Ev(ptr noundef nonnull align 8 dereferenceable(521) %0) unnamed_addr #0 comdat align 2 {
  %2 = alloca ptr, align 8
  store ptr %0, ptr %2, align 8
  %3 = load ptr, ptr %2, align 8
  %4 = getelementptr inbounds nuw %"struct.std::_Optional_payload_base.21", ptr %3, i32 0, i32 0
  call void @_ZNSt22_Optional_payload_baseIN4llvm6object7DirectX14PSVRuntimeInfoEE8_StorageIS3_Lb0EEC2Ev(ptr noundef nonnull align 8 dereferenceable(520) %4) #9
  %5 = getelementptr inbounds nuw %"struct.std::_Optional_payload_base.21", ptr %3, i32 0, i32 1
  store i8 0, ptr %5, align 8
  ret void
}

; Function Attrs: mustprogress nounwind uwtable
define linkonce_odr hidden void @_ZNSt22_Optional_payload_baseIN4llvm4dxbc10ShaderHashEE8_StorageIS2_Lb1EEC2Ev(ptr noundef nonnull align 4 dereferenceable(20) %0) unnamed_addr #0 comdat align 2 {
  %2 = alloca ptr, align 8
  store ptr %0, ptr %2, align 8
  ret void
}

; Function Attrs: mustprogress nounwind uwtable
define linkonce_odr hidden void @_ZNSt22_Optional_payload_baseImE8_StorageImLb1EEC2Ev(ptr noundef nonnull align 8 dereferenceable(8) %0) unnamed_addr #0 comdat align 2 {
  %2 = alloca ptr, align 8
  store ptr %0, ptr %2, align 8
  ret void
}

; Function Attrs: mustprogress nounwind uwtable
define linkonce_odr hidden void @_ZNSt22_Optional_payload_baseISt4pairIN4llvm4dxbc13ProgramHeaderEPKcEE8_StorageIS6_Lb1EEC2Ev(ptr noundef nonnull align 8 dereferenceable(32) %0) unnamed_addr #0 comdat align 2 {
  %2 = alloca ptr, align 8
  store ptr %0, ptr %2, align 8
  ret void
}

; Function Attrs: mustprogress nounwind uwtable
define linkonce_odr hidden noundef ptr @_ZNK4llvm25SmallVectorTemplateCommonIjvE10getFirstElEv(ptr noundef nonnull align 8 dereferenceable(16) %0) #0 comdat align 2 {
  %2 = alloca ptr, align 8
  store ptr %0, ptr %2, align 8
  %3 = load ptr, ptr %2, align 8
  %4 = getelementptr inbounds i8, ptr %3, i64 16
  ret ptr %4
}

; Function Attrs: mustprogress nounwind uwtable
define linkonce_odr hidden void @_ZNSt17_Optional_payloadIN4llvm6object7DirectX14PSVRuntimeInfoELb1ELb0ELb0EEC2Ev(ptr noundef nonnull align 8 dereferenceable(521) %0) unnamed_addr #0 comdat align 2 {
  %2 = alloca ptr, align 8
  store ptr %0, ptr %2, align 8
  %3 = load ptr, ptr %2, align 8
  call void @_ZNSt22_Optional_payload_baseIN4llvm6object7DirectX14PSVRuntimeInfoEEC2Ev(ptr noundef nonnull align 8 dereferenceable(521) %3) #9
  ret void
}

; Function Attrs: mustprogress nounwind uwtable
define linkonce_odr hidden void @_ZNSt22_Optional_payload_baseIN4llvm4dxbc10ShaderHashEEC2Ev(ptr noundef nonnull align 4 dereferenceable(21) %0) unnamed_addr #0 comdat align 2 {
  %2 = alloca ptr, align 8
  store ptr %0, ptr %2, align 8
  %3 = load ptr, ptr %2, align 8
  %4 = getelementptr inbounds nuw %"struct.std::_Optional_payload_base.12", ptr %3, i32 0, i32 0
  call void @_ZNSt22_Optional_payload_baseIN4llvm4dxbc10ShaderHashEE8_StorageIS2_Lb1EEC2Ev(ptr noundef nonnull align 4 dereferenceable(20) %4) #9
  %5 = getelementptr inbounds nuw %"struct.std::_Optional_payload_base.12", ptr %3, i32 0, i32 1
  store i8 0, ptr %5, align 4
  ret void
}

; Function Attrs: mustprogress nounwind uwtable
define linkonce_odr hidden void @_ZNSt22_Optional_payload_baseImEC2Ev(ptr noundef nonnull align 8 dereferenceable(9) %0) unnamed_addr #0 comdat align 2 {
  %2 = alloca ptr, align 8
  store ptr %0, ptr %2, align 8
  %3 = load ptr, ptr %2, align 8
  %4 = getelementptr inbounds nuw %"struct.std::_Optional_payload_base.4", ptr %3, i32 0, i32 0
  call void @_ZNSt22_Optional_payload_baseImE8_StorageImLb1EEC2Ev(ptr noundef nonnull align 8 dereferenceable(8) %4) #9
  %5 = getelementptr inbounds nuw %"struct.std::_Optional_payload_base.4", ptr %3, i32 0, i32 1
  store i8 0, ptr %5, align 8
  ret void
}

; Function Attrs: mustprogress nounwind uwtable
define linkonce_odr hidden void @_ZNSt22_Optional_payload_baseISt4pairIN4llvm4dxbc13ProgramHeaderEPKcEEC2Ev(ptr noundef nonnull align 8 dereferenceable(33) %0) unnamed_addr #0 comdat align 2 {
  %2 = alloca ptr, align 8
  store ptr %0, ptr %2, align 8
  %3 = load ptr, ptr %2, align 8
  %4 = getelementptr inbounds nuw %"struct.std::_Optional_payload_base", ptr %3, i32 0, i32 0
  call void @_ZNSt22_Optional_payload_baseISt4pairIN4llvm4dxbc13ProgramHeaderEPKcEE8_StorageIS6_Lb1EEC2Ev(ptr noundef nonnull align 8 dereferenceable(32) %4) #9
  %5 = getelementptr inbounds nuw %"struct.std::_Optional_payload_base", ptr %3, i32 0, i32 1
  store i8 0, ptr %5, align 8
  ret void
}

; Function Attrs: mustprogress nounwind uwtable
define linkonce_odr hidden void @_ZN4llvm25SmallVectorTemplateCommonIjvEC2Em(ptr noundef nonnull align 8 dereferenceable(16) %0, i64 noundef %1) unnamed_addr #0 comdat align 2 {
  %3 = alloca ptr, align 8
  %4 = alloca i64, align 8
  store ptr %0, ptr %3, align 8
  store i64 %1, ptr %4, align 8
  %5 = load ptr, ptr %3, align 8
  %6 = call noundef ptr @_ZNK4llvm25SmallVectorTemplateCommonIjvE10getFirstElEv(ptr noundef nonnull align 8 dereferenceable(16) %5)
  %7 = load i64, ptr %4, align 8
  call void @_ZN4llvm15SmallVectorBaseIjEC2EPvm(ptr noundef nonnull align 8 dereferenceable(16) %5, ptr noundef %6, i64 noundef %7)
  ret void
}

; Function Attrs: mustprogress nounwind uwtable
define linkonce_odr hidden void @_ZNSt17_Optional_payloadIN4llvm6object7DirectX14PSVRuntimeInfoELb0ELb0ELb0EEC2Ev(ptr noundef nonnull align 8 dereferenceable(521) %0) unnamed_addr #0 comdat align 2 {
  %2 = alloca ptr, align 8
  store ptr %0, ptr %2, align 8
  %3 = load ptr, ptr %2, align 8
  call void @_ZNSt17_Optional_payloadIN4llvm6object7DirectX14PSVRuntimeInfoELb1ELb0ELb0EEC2Ev(ptr noundef nonnull align 8 dereferenceable(521) %3) #9
  ret void
}

; Function Attrs: mustprogress nounwind uwtable
define linkonce_odr hidden void @_ZNSt17_Optional_payloadIN4llvm4dxbc10ShaderHashELb1ELb1ELb1EEC2Ev(ptr noundef nonnull align 4 dereferenceable(21) %0) unnamed_addr #0 comdat align 2 {
  %2 = alloca ptr, align 8
  store ptr %0, ptr %2, align 8
  %3 = load ptr, ptr %2, align 8
  call void @_ZNSt22_Optional_payload_baseIN4llvm4dxbc10ShaderHashEEC2Ev(ptr noundef nonnull align 4 dereferenceable(21) %3) #9
  ret void
}

; Function Attrs: mustprogress nounwind uwtable
define linkonce_odr hidden void @_ZNSt17_Optional_payloadImLb1ELb1ELb1EEC2Ev(ptr noundef nonnull align 8 dereferenceable(9) %0) unnamed_addr #0 comdat align 2 {
  %2 = alloca ptr, align 8
  store ptr %0, ptr %2, align 8
  %3 = load ptr, ptr %2, align 8
  call void @_ZNSt22_Optional_payload_baseImEC2Ev(ptr noundef nonnull align 8 dereferenceable(9) %3) #9
  ret void
}

; Function Attrs: mustprogress nounwind uwtable
define linkonce_odr hidden void @_ZNSt17_Optional_payloadISt4pairIN4llvm4dxbc13ProgramHeaderEPKcELb1ELb0ELb0EEC2Ev(ptr noundef nonnull align 8 dereferenceable(33) %0) unnamed_addr #0 comdat align 2 {
  %2 = alloca ptr, align 8
  store ptr %0, ptr %2, align 8
  %3 = load ptr, ptr %2, align 8
  call void @_ZNSt22_Optional_payload_baseISt4pairIN4llvm4dxbc13ProgramHeaderEPKcEEC2Ev(ptr noundef nonnull align 8 dereferenceable(33) %3) #9
  ret void
}

; Function Attrs: mustprogress nounwind uwtable
define linkonce_odr hidden void @_ZN4llvm23SmallVectorTemplateBaseIjLb1EEC2Em(ptr noundef nonnull align 8 dereferenceable(16) %0, i64 noundef %1) unnamed_addr #0 comdat align 2 {
  %3 = alloca ptr, align 8
  %4 = alloca i64, align 8
  store ptr %0, ptr %3, align 8
  store i64 %1, ptr %4, align 8
  %5 = load ptr, ptr %3, align 8
  %6 = load i64, ptr %4, align 8
  call void @_ZN4llvm25SmallVectorTemplateCommonIjvEC2Em(ptr noundef nonnull align 8 dereferenceable(16) %5, i64 noundef %6)
  ret void
}

; Function Attrs: mustprogress nounwind uwtable
define linkonce_odr hidden void @_ZN4llvm9StringRefC2Ev(ptr noundef nonnull align 8 dereferenceable(16) %0) unnamed_addr #0 comdat align 2 {
  %2 = alloca ptr, align 8
  store ptr %0, ptr %2, align 8
  %3 = load ptr, ptr %2, align 8
  %4 = getelementptr inbounds nuw %"class.llvm::StringRef", ptr %3, i32 0, i32 0
  store ptr null, ptr %4, align 8
  %5 = getelementptr inbounds nuw %"class.llvm::StringRef", ptr %3, i32 0, i32 1
  store i64 0, ptr %5, align 8
  ret void
}

; Function Attrs: mustprogress nounwind uwtable
define linkonce_odr hidden void @_ZN4llvm6object9ViewArrayINS_4dxbc23ProgramSignatureElementEEC2Ev(ptr noundef nonnull align 8 dereferenceable(20) %0) unnamed_addr #0 comdat align 2 {
  %2 = alloca ptr, align 8
  store ptr %0, ptr %2, align 8
  %3 = load ptr, ptr %2, align 8
  %4 = getelementptr inbounds nuw %"struct.llvm::object::ViewArray.42", ptr %3, i32 0, i32 0
  call void @_ZN4llvm9StringRefC2Ev(ptr noundef nonnull align 8 dereferenceable(16) %4) #9
  %5 = getelementptr inbounds nuw %"struct.llvm::object::ViewArray.42", ptr %3, i32 0, i32 1
  store i32 32, ptr %5, align 8
  ret void
}

; Function Attrs: mustprogress nounwind uwtable
define linkonce_odr hidden void @_ZNSt14_Optional_baseIN4llvm6object7DirectX14PSVRuntimeInfoELb0ELb0EEC2Ev(ptr noundef nonnull align 8 dereferenceable(528) %0) unnamed_addr #0 comdat align 2 {
  %2 = alloca ptr, align 8
  store ptr %0, ptr %2, align 8
  %3 = load ptr, ptr %2, align 8
  %4 = getelementptr inbounds nuw %"struct.std::_Optional_base.17", ptr %3, i32 0, i32 0
  call void @_ZNSt17_Optional_payloadIN4llvm6object7DirectX14PSVRuntimeInfoELb0ELb0ELb0EEC2Ev(ptr noundef nonnull align 8 dereferenceable(521) %4) #9
  ret void
}

; Function Attrs: mustprogress nounwind uwtable
define linkonce_odr hidden void @_ZNSt14_Optional_baseIN4llvm4dxbc10ShaderHashELb1ELb1EEC2Ev(ptr noundef nonnull align 4 dereferenceable(24) %0) unnamed_addr #0 comdat align 2 {
  %2 = alloca ptr, align 8
  store ptr %0, ptr %2, align 8
  %3 = load ptr, ptr %2, align 8
  %4 = getelementptr inbounds nuw %"struct.std::_Optional_base.9", ptr %3, i32 0, i32 0
  call void @_ZNSt17_Optional_payloadIN4llvm4dxbc10ShaderHashELb1ELb1ELb1EEC2Ev(ptr noundef nonnull align 4 dereferenceable(21) %4) #9
  ret void
}

; Function Attrs: mustprogress nounwind uwtable
define linkonce_odr hidden void @_ZNSt14_Optional_baseImLb1ELb1EEC2Ev(ptr noundef nonnull align 8 dereferenceable(16) %0) unnamed_addr #0 comdat align 2 {
  %2 = alloca ptr, align 8
  store ptr %0, ptr %2, align 8
  %3 = load ptr, ptr %2, align 8
  %4 = getelementptr inbounds nuw %"struct.std::_Optional_base.1", ptr %3, i32 0, i32 0
  call void @_ZNSt17_Optional_payloadImLb1ELb1ELb1EEC2Ev(ptr noundef nonnull align 8 dereferenceable(9) %4) #9
  ret void
}

; Function Attrs: mustprogress nounwind uwtable
define linkonce_odr hidden void @_ZNSt14_Optional_baseISt4pairIN4llvm4dxbc13ProgramHeaderEPKcELb1ELb1EEC2Ev(ptr noundef nonnull align 8 dereferenceable(40) %0) unnamed_addr #0 comdat align 2 {
  %2 = alloca ptr, align 8
  store ptr %0, ptr %2, align 8
  %3 = load ptr, ptr %2, align 8
  %4 = getelementptr inbounds nuw %"struct.std::_Optional_base", ptr %3, i32 0, i32 0
  call void @_ZNSt17_Optional_payloadISt4pairIN4llvm4dxbc13ProgramHeaderEPKcELb1ELb0ELb0EEC2Ev(ptr noundef nonnull align 8 dereferenceable(33) %4) #9
  ret void
}

; Function Attrs: mustprogress nounwind uwtable
define linkonce_odr hidden void @_ZN4llvm15SmallVectorImplIjEC2Ej(ptr noundef nonnull align 8 dereferenceable(16) %0, i32 noundef %1) unnamed_addr #0 comdat align 2 {
  %3 = alloca ptr, align 8
  %4 = alloca i32, align 4
  store ptr %0, ptr %3, align 8
  store i32 %1, ptr %4, align 4
  %5 = load ptr, ptr %3, align 8
  %6 = load i32, ptr %4, align 4
  %7 = zext i32 %6 to i64
  call void @_ZN4llvm23SmallVectorTemplateBaseIjLb1EEC2Em(ptr noundef nonnull align 8 dereferenceable(16) %5, i64 noundef %7)
  ret void
}

; Function Attrs: mustprogress nounwind uwtable
define linkonce_odr hidden void @_ZN4llvm6object7DirectX9SignatureC2Ev(ptr noundef nonnull align 8 dereferenceable(48) %0) unnamed_addr #0 comdat align 2 {
  %2 = alloca ptr, align 8
  store ptr %0, ptr %2, align 8
  %3 = load ptr, ptr %2, align 8
  %4 = getelementptr inbounds nuw %"class.llvm::object::DirectX::Signature", ptr %3, i32 0, i32 0
  call void @_ZN4llvm6object9ViewArrayINS_4dxbc23ProgramSignatureElementEEC2Ev(ptr noundef nonnull align 8 dereferenceable(20) %4) #9
  %5 = getelementptr inbounds nuw %"class.llvm::object::DirectX::Signature", ptr %3, i32 0, i32 2
  call void @_ZN4llvm9StringRefC2Ev(ptr noundef nonnull align 8 dereferenceable(16) %5) #9
  ret void
}

; Function Attrs: mustprogress nounwind uwtable
define linkonce_odr hidden void @_ZNSt8optionalIN4llvm6object7DirectX14PSVRuntimeInfoEEC2Ev(ptr noundef nonnull align 8 dereferenceable(528) %0) unnamed_addr #0 comdat align 2 {
  %2 = alloca ptr, align 8
  store ptr %0, ptr %2, align 8
  %3 = load ptr, ptr %2, align 8
  call void @_ZNSt14_Optional_baseIN4llvm6object7DirectX14PSVRuntimeInfoELb0ELb0EEC2Ev(ptr noundef nonnull align 8 dereferenceable(528) %3) #9
  ret void
}

; Function Attrs: mustprogress nounwind uwtable
define linkonce_odr hidden void @_ZNSt8optionalIN4llvm4dxbc10ShaderHashEEC2Ev(ptr noundef nonnull align 4 dereferenceable(24) %0) unnamed_addr #0 comdat align 2 {
  %2 = alloca ptr, align 8
  store ptr %0, ptr %2, align 8
  %3 = load ptr, ptr %2, align 8
  call void @_ZNSt14_Optional_baseIN4llvm4dxbc10ShaderHashELb1ELb1EEC2Ev(ptr noundef nonnull align 4 dereferenceable(24) %3) #9
  ret void
}

; Function Attrs: mustprogress nounwind uwtable
define linkonce_odr hidden void @_ZNSt8optionalImEC2Ev(ptr noundef nonnull align 8 dereferenceable(16) %0) unnamed_addr #0 comdat align 2 {
  %2 = alloca ptr, align 8
  store ptr %0, ptr %2, align 8
  %3 = load ptr, ptr %2, align 8
  call void @_ZNSt14_Optional_baseImLb1ELb1EEC2Ev(ptr noundef nonnull align 8 dereferenceable(16) %3) #9
  ret void
}

; Function Attrs: mustprogress nounwind uwtable
define linkonce_odr hidden void @_ZNSt8optionalISt4pairIN4llvm4dxbc13ProgramHeaderEPKcEEC2Ev(ptr noundef nonnull align 8 dereferenceable(40) %0) unnamed_addr #0 comdat align 2 {
  %2 = alloca ptr, align 8
  store ptr %0, ptr %2, align 8
  %3 = load ptr, ptr %2, align 8
  call void @_ZNSt14_Optional_baseISt4pairIN4llvm4dxbc13ProgramHeaderEPKcELb1ELb1EEC2Ev(ptr noundef nonnull align 8 dereferenceable(40) %3) #9
  ret void
}

; Function Attrs: mustprogress nounwind uwtable
define linkonce_odr hidden void @_ZN4llvm11SmallVectorIjLj4EEC2Ev(ptr noundef nonnull align 8 dereferenceable(32) %0) unnamed_addr #0 comdat align 2 {
  %2 = alloca ptr, align 8
  store ptr %0, ptr %2, align 8
  %3 = load ptr, ptr %2, align 8
  call void @_ZN4llvm15SmallVectorImplIjEC2Ej(ptr noundef nonnull align 8 dereferenceable(16) %3, i32 noundef 4)
  ret void
}

; Function Attrs: mustprogress nounwind uwtable
define dso_local void @_ZN4llvm6object11DXContainerC2ENS_15MemoryBufferRefE(ptr noundef nonnull align 8 dereferenceable(848) %0, ptr noundef byval(%"class.llvm::MemoryBufferRef") align 8 %1) unnamed_addr #0 align 2 {
  %3 = alloca ptr, align 8
  store ptr %0, ptr %3, align 8
  %4 = load ptr, ptr %3, align 8
  %5 = getelementptr inbounds nuw %"class.llvm::object::DXContainer", ptr %4, i32 0, i32 0
  call void @llvm.memcpy.p0.p0.i64(ptr align 8 %5, ptr align 8 %1, i64 32, i1 false)
  %6 = getelementptr inbounds nuw %"class.llvm::object::DXContainer", ptr %4, i32 0, i32 2
  call void @_ZN4llvm11SmallVectorIjLj4EEC2Ev(ptr noundef nonnull align 8 dereferenceable(32) %6)
  %7 = getelementptr inbounds nuw %"class.llvm::object::DXContainer", ptr %4, i32 0, i32 3
  call void @_ZNSt8optionalISt4pairIN4llvm4dxbc13ProgramHeaderEPKcEEC2Ev(ptr noundef nonnull align 8 dereferenceable(40) %7) #9
  %8 = getelementptr inbounds nuw %"class.llvm::object::DXContainer", ptr %4, i32 0, i32 4
  call void @_ZNSt8optionalImEC2Ev(ptr noundef nonnull align 8 dereferenceable(16) %8) #9
  %9 = getelementptr inbounds nuw %"class.llvm::object::DXContainer", ptr %4, i32 0, i32 5
  call void @_ZNSt8optionalIN4llvm4dxbc10ShaderHashEEC2Ev(ptr noundef nonnull align 4 dereferenceable(24) %9) #9
  %10 = getelementptr inbounds nuw %"class.llvm::object::DXContainer", ptr %4, i32 0, i32 6
  call void @_ZNSt8optionalIN4llvm6object7DirectX14PSVRuntimeInfoEEC2Ev(ptr noundef nonnull align 8 dereferenceable(528) %10) #9
  %11 = getelementptr inbounds nuw %"class.llvm::object::DXContainer", ptr %4, i32 0, i32 7
  call void @_ZN4llvm6object7DirectX9SignatureC2Ev(ptr noundef nonnull align 8 dereferenceable(48) %11) #9
  %12 = getelementptr inbounds nuw %"class.llvm::object::DXContainer", ptr %4, i32 0, i32 8
  call void @_ZN4llvm6object7DirectX9SignatureC2Ev(ptr noundef nonnull align 8 dereferenceable(48) %12) #9
  %13 = getelementptr inbounds nuw %"class.llvm::object::DXContainer", ptr %4, i32 0, i32 9
  call void @_ZN4llvm6object7DirectX9SignatureC2Ev(ptr noundef nonnull align 8 dereferenceable(48) %13) #9
  ret void
}