; Function Attrs: mustprogress nounwind uwtable
define dso_local void @_ZN4llvm6object11DXContainerC2ENS_15MemoryBufferRefE(ptr noundef nonnull align 8 dereferenceable(848) %0, ptr nocapture noundef readonly byval(%"class.llvm::MemoryBufferRef") align 8 %1) unnamed_addr #0 align 2 {
  call void @llvm.memcpy.p0.p0.i64(ptr noundef nonnull align 8 dereferenceable(32) %0, ptr noundef nonnull align 8 dereferenceable(32) %1, i64 32, i1 false)
  %3 = getelementptr inbounds nuw i8, ptr %0, i64 64
  %4 = getelementptr inbounds i8, ptr %0, i64 80
  tail call void @_ZN4llvm15SmallVectorBaseIjEC2EPvm(ptr noundef nonnull align 8 dereferenceable(16) %3, ptr noundef nonnull %4, i64 noundef 4) #14
  %5 = getelementptr inbounds i8, ptr %0, i64 128
  store i8 0, ptr %5, align 8
  %6 = getelementptr inbounds i8, ptr %0, i64 144
  store i8 0, ptr %6, align 8
  %7 = getelementptr inbounds i8, ptr %0, i64 172
  store i8 0, ptr %7, align 4
  %8 = getelementptr inbounds i8, ptr %0, i64 696
  store i8 0, ptr %8, align 8
  %9 = getelementptr inbounds nuw i8, ptr %0, i64 704
  tail call void @llvm.memset.p0.i64(ptr noundef nonnull align 8 dereferenceable(16) %9, i8 0, i64 16, i1 false)
  %10 = getelementptr inbounds i8, ptr %0, i64 720
  store i32 32, ptr %10, align 8
  %11 = getelementptr inbounds i8, ptr %0, i64 736
  %12 = getelementptr inbounds i8, ptr %0, i64 768
  tail call void @llvm.memset.p0.i64(ptr noundef nonnull align 8 dereferenceable(32) %11, i8 0, i64 32, i1 false)
  store i32 32, ptr %12, align 8
  %13 = getelementptr inbounds i8, ptr %0, i64 784
  %14 = getelementptr inbounds i8, ptr %0, i64 816
  tail call void @llvm.memset.p0.i64(ptr noundef nonnull align 8 dereferenceable(32) %13, i8 0, i64 32, i1 false)
  store i32 32, ptr %14, align 8
  %15 = getelementptr inbounds i8, ptr %0, i64 832
  tail call void @llvm.memset.p0.i64(ptr noundef nonnull align 8 dereferenceable(16) %15, i8 0, i64 16, i1 false)
  ret void
}